; Function Attrs: nounwind uwtable
define noalias nonnull ptr @l_Lean_Compiler_LCNF_hashAlt___boxed(ptr noundef %0) local_unnamed_addr #0 {
  %2 = tail call i64 @l_Lean_Compiler_LCNF_hashAlt(ptr noundef %0)
  %3 = ptrtoint ptr %0 to i64
  %4 = and i64 %3, 1
  %.not = icmp eq i64 %4, 0
  br i1 %.not, label %5, label %lean_dec.exit

5:                                                ; preds = %1
  %6 = load i32, ptr %0, align 4, !tbaa !8
  %7 = icmp sgt i32 %6, 1
  br i1 %7, label %8, label %10, !prof !11

8:                                                ; preds = %5
  %9 = add nsw i32 %6, -1
  store i32 %9, ptr %0, align 4, !tbaa !8
  br label %lean_dec.exit

10:                                               ; preds = %5
  %.not.i = icmp eq i32 %6, 0
  br i1 %.not.i, label %lean_dec.exit, label %11

11:                                               ; preds = %10
  tail call void @lean_dec_ref_cold(ptr noundef nonnull %0) #3
  br label %lean_dec.exit

lean_dec.exit:                                    ; preds = %11, %10, %8, %1
  tail call void @lean_inc_heartbeat() #3
  %12 = tail call noalias ptr @mi_malloc_small(i64 noundef 16) #3
  %13 = icmp eq ptr %12, null
  br i1 %13, label %14, label %lean_box_uint64.exit

14:                                               ; preds = %lean_dec.exit
  tail call void @lean_internal_panic_out_of_memory() #4
  unreachable

lean_box_uint64.exit:                             ; preds = %lean_dec.exit
  %15 = getelementptr inbounds nuw i8, ptr %12, i64 4
  store i32 1, ptr %12, align 4, !tbaa !8
  store i32 16, ptr %15, align 4
  %16 = getelementptr inbounds nuw i8, ptr %12, i64 8
  store i64 %2, ptr %16, align 8, !tbaa !12
  ret ptr %12
}